; ModuleID = 'source-C-CXX/10/773.c'
source_filename = "source-C-CXX/10/773.c"
target datalayout = "e-m:e-p270:32:32-p271:32:32-p272:64:64-i64:64-f80:128-n8:16:32:64-S128"
target triple = "x86_64-pc-linux-gnu"

@.str = private unnamed_addr constant [9 x i8] c"%d %d %d\00", align 1
@.str.1 = private unnamed_addr constant [3 x i8] c"%d\00", align 1
@switch.table.main = private unnamed_addr constant [10 x i32] [i32 60, i32 91, i32 121, i32 152, i32 182, i32 213, i32 244, i32 274, i32 305, i32 335], align 4
@switch.table.main.2 = private unnamed_addr constant [10 x i32] [i32 59, i32 90, i32 120, i32 151, i32 181, i32 212, i32 243, i32 273, i32 304, i32 334], align 4

; Function Attrs: nofree nounwind sspstrong uwtable
define dso_local void @main() local_unnamed_addr #0 {
  %1 = alloca i32, align 4
  %2 = alloca i32, align 4
  %3 = alloca i32, align 4
  %4 = bitcast i32* %1 to i8*
  call void @llvm.lifetime.start.p0i8(i64 4, i8* nonnull %4) #3
  %5 = bitcast i32* %2 to i8*
  call void @llvm.lifetime.start.p0i8(i64 4, i8* nonnull %5) #3
  %6 = bitcast i32* %3 to i8*
  call void @llvm.lifetime.start.p0i8(i64 4, i8* nonnull %6) #3
  %7 = call i32 (i8*, ...) @__isoc99_scanf(i8* getelementptr inbounds ([9 x i8], [9 x i8]* @.str, i64 0, i64 0), i32* nonnull %1, i32* nonnull %2, i32* nonnull %3)
  %8 = load i32, i32* %2, align 4, !tbaa !5
  switch i32 %8, label %14 [
    i32 2, label %9
    i32 1, label %12
  ]

9:                                                ; preds = %0
  %10 = load i32, i32* %3, align 4, !tbaa !5
  %11 = add nsw i32 %10, 31
  br label %35

12:                                               ; preds = %0
  %13 = load i32, i32* %3, align 4, !tbaa !5
  br label %35

14:                                               ; preds = %0
  %15 = load i32, i32* %1, align 4, !tbaa !5
  %16 = add i32 %8, -3
  %17 = icmp ult i32 %16, 10
  br i1 %17, label %18, label %31

18:                                               ; preds = %14
  %19 = and i32 %15, 3
  %20 = icmp eq i32 %19, 0
  %21 = srem i32 %15, 100
  %22 = icmp ne i32 %21, 0
  %23 = and i1 %20, %22
  %24 = srem i32 %15, 400
  %25 = icmp eq i32 %24, 0
  %26 = select i1 %23, i1 true, i1 %25
  %27 = select i1 %26, [10 x i32]* @switch.table.main, [10 x i32]* @switch.table.main.2
  %28 = sext i32 %16 to i64
  %29 = getelementptr inbounds [10 x i32], [10 x i32]* %27, i64 0, i64 %28
  %30 = load i32, i32* %29, align 4
  br label %31

31:                                               ; preds = %14, %18
  %32 = phi i32 [ %30, %18 ], [ 0, %14 ]
  %33 = load i32, i32* %3, align 4, !tbaa !5
  %34 = add nsw i32 %33, %32
  br label %35

35:                                               ; preds = %12, %31, %9
  %36 = phi i32 [ %13, %12 ], [ %34, %31 ], [ %11, %9 ]
  %37 = call i32 (i8*, ...) @printf(i8* nonnull dereferenceable(1) getelementptr inbounds ([3 x i8], [3 x i8]* @.str.1, i64 0, i64 0), i32 %36)
  call void @llvm.lifetime.end.p0i8(i64 4, i8* nonnull %6) #3
  call void @llvm.lifetime.end.p0i8(i64 4, i8* nonnull %5) #3
  call void @llvm.lifetime.end.p0i8(i64 4, i8* nonnull %4) #3
  ret void
}

; Function Attrs: argmemonly mustprogress nofree nosync nounwind willreturn
declare void @llvm.lifetime.start.p0i8(i64 immarg, i8* nocapture) #1

; Function Attrs: nofree nounwind
declare noundef i32 @__isoc99_scanf(i8* nocapture noundef readonly, ...) local_unnamed_addr #2

; Function Attrs: nofree nounwind
declare noundef i32 @printf(i8* nocapture noundef readonly, ...) local_unnamed_addr #2

; Function Attrs: argmemonly mustprogress nofree nosync nounwind willreturn
declare void @llvm.lifetime.end.p0i8(i64 immarg, i8* nocapture) #1


!llvm.module.flags = !{!0, !1, !2, !3}
!llvm.ident = !{!4}

!0 = !{i32 1, !"wchar_size", i32 4}
!1 = !{i32 7, !"PIC Level", i32 2}
!2 = !{i32 7, !"PIE Level", i32 2}
!3 = !{i32 7, !"uwtable", i32 1}
!4 = !{!"clang version 13.0.0"}
!5 = !{!6, !6, i64 0}
!6 = !{!"int", !7, i64 0}
!7 = !{!"omnipotent char", !8, i64 0}
!8 = !{!"Simple C/C++ TBAA"}
